; Function Attrs: nofree norecurse nosync nounwind memory(argmem: readwrite) uwtable
define internal void @put_rv40_qpel16_mc33_c(ptr noundef writeonly captures(none) %0, ptr noundef readonly captures(none) %1, i64 noundef %2) #3 {
  %.neg.i = mul i64 %2, -17
  %4 = add i64 %.neg.i, 4
  %5 = shl nsw i64 %2, 4
  %6 = sub nsw i64 4, %5
  br label %7

7:                                                ; preds = %57, %3
  %.065.i.i = phi ptr [ %0, %3 ], [ %59, %57 ]
  %.04864.i.i = phi ptr [ %1, %3 ], [ %58, %57 ]
  %8 = phi i1 [ true, %3 ], [ false, %57 ]
  %9 = load i32, ptr %.04864.i.i, align 1, !tbaa !8
  %10 = getelementptr inbounds nuw i8, ptr %.04864.i.i, i64 1
  %11 = load i32, ptr %10, align 1, !tbaa !8
  %12 = and i32 %9, 50529027
  %13 = and i32 %11, 50529027
  %14 = add nuw nsw i32 %12, 33686018
  %15 = add nuw nsw i32 %14, %13
  %16 = lshr i32 %9, 2
  %17 = and i32 %16, 1061109567
  %18 = lshr i32 %11, 2
  %19 = and i32 %18, 1061109567
  %narrow.i.i = add nuw nsw i32 %19, %17
  %.14957.i.i = getelementptr inbounds i8, ptr %.04864.i.i, i64 %2
  br label %20

20:                                               ; preds = %20, %7
  %.14962.i.i = phi ptr [ %.14957.i.i, %7 ], [ %.149.i.i, %20 ]
  %.161.i.i = phi ptr [ %.065.i.i, %7 ], [ %54, %20 ]
  %.05160.i.i = phi i32 [ 0, %7 ], [ %55, %20 ]
  %.05259.i.i = phi i32 [ %narrow.i.i, %7 ], [ %narrow56.i.i, %20 ]
  %.05358.i.i = phi i32 [ %15, %7 ], [ %44, %20 ]
  %21 = load i32, ptr %.14962.i.i, align 1, !tbaa !8
  %22 = getelementptr inbounds nuw i8, ptr %.14962.i.i, i64 1
  %23 = load i32, ptr %22, align 1, !tbaa !8
  %24 = and i32 %21, 50529027
  %25 = and i32 %23, 50529027
  %26 = add nuw nsw i32 %25, %24
  %27 = lshr i32 %21, 2
  %28 = and i32 %27, 1061109567
  %29 = lshr i32 %23, 2
  %30 = and i32 %29, 1061109567
  %narrow55.i.i = add nuw nsw i32 %30, %28
  %31 = add nuw i32 %narrow55.i.i, %.05259.i.i
  %32 = add nuw nsw i32 %26, %.05358.i.i
  %33 = lshr i32 %32, 2
  %34 = and i32 %33, 252645135
  %35 = add i32 %31, %34
  store i32 %35, ptr %.161.i.i, align 4, !tbaa !9
  %36 = getelementptr inbounds i8, ptr %.14962.i.i, i64 %2
  %37 = getelementptr inbounds i8, ptr %.161.i.i, i64 %2
  %38 = load i32, ptr %36, align 1, !tbaa !8
  %39 = getelementptr inbounds nuw i8, ptr %36, i64 1
  %40 = load i32, ptr %39, align 1, !tbaa !8
  %41 = and i32 %38, 50529027
  %42 = and i32 %40, 50529027
  %43 = add nuw nsw i32 %41, 33686018
  %44 = add nuw nsw i32 %43, %42
  %45 = lshr i32 %38, 2
  %46 = and i32 %45, 1061109567
  %47 = lshr i32 %40, 2
  %48 = and i32 %47, 1061109567
  %narrow56.i.i = add nuw nsw i32 %48, %46
  %49 = add nuw i32 %narrow56.i.i, %narrow55.i.i
  %50 = add nuw nsw i32 %44, %26
  %51 = lshr i32 %50, 2
  %52 = and i32 %51, 117901063
  %53 = add i32 %49, %52
  store i32 %53, ptr %37, align 4, !tbaa !9
  %54 = getelementptr inbounds i8, ptr %37, i64 %2
  %55 = add nuw nsw i32 %.05160.i.i, 2
  %.149.i.i = getelementptr inbounds i8, ptr %36, i64 %2
  %56 = icmp samesign ult i32 %.05160.i.i, 14
  br i1 %56, label %20, label %57, !llvm.loop !11

57:                                               ; preds = %20
  %58 = getelementptr inbounds i8, ptr %.149.i.i, i64 %4
  %59 = getelementptr inbounds i8, ptr %54, i64 %6
  br i1 %8, label %7, label %put_pixels8_xy2_8_c.exit.i, !llvm.loop !13

put_pixels8_xy2_8_c.exit.i:                       ; preds = %57
  %60 = getelementptr inbounds nuw i8, ptr %0, i64 8
  %61 = getelementptr inbounds nuw i8, ptr %1, i64 8
  br label %62

62:                                               ; preds = %112, %put_pixels8_xy2_8_c.exit.i
  %.065.i7.i = phi ptr [ %60, %put_pixels8_xy2_8_c.exit.i ], [ %114, %112 ]
  %.04864.i8.i = phi ptr [ %61, %put_pixels8_xy2_8_c.exit.i ], [ %113, %112 ]
  %63 = phi i1 [ true, %put_pixels8_xy2_8_c.exit.i ], [ false, %112 ]
  %64 = load i32, ptr %.04864.i8.i, align 1, !tbaa !8
  %65 = getelementptr inbounds nuw i8, ptr %.04864.i8.i, i64 1
  %66 = load i32, ptr %65, align 1, !tbaa !8
  %67 = and i32 %64, 50529027
  %68 = and i32 %66, 50529027
  %69 = add nuw nsw i32 %67, 33686018
  %70 = add nuw nsw i32 %69, %68
  %71 = lshr i32 %64, 2
  %72 = and i32 %71, 1061109567
  %73 = lshr i32 %66, 2
  %74 = and i32 %73, 1061109567
  %narrow.i9.i = add nuw nsw i32 %74, %72
  %.14957.i10.i = getelementptr inbounds i8, ptr %.04864.i8.i, i64 %2
  br label %75

75:                                               ; preds = %75, %62
  %.14962.i11.i = phi ptr [ %.14957.i10.i, %62 ], [ %.149.i18.i, %75 ]
  %.161.i12.i = phi ptr [ %.065.i7.i, %62 ], [ %109, %75 ]
  %.05160.i13.i = phi i32 [ 0, %62 ], [ %110, %75 ]
  %.05259.i14.i = phi i32 [ %narrow.i9.i, %62 ], [ %narrow56.i17.i, %75 ]
  %.05358.i15.i = phi i32 [ %70, %62 ], [ %99, %75 ]
  %76 = load i32, ptr %.14962.i11.i, align 1, !tbaa !8
  %77 = getelementptr inbounds nuw i8, ptr %.14962.i11.i, i64 1
  %78 = load i32, ptr %77, align 1, !tbaa !8
  %79 = and i32 %76, 50529027
  %80 = and i32 %78, 50529027
  %81 = add nuw nsw i32 %80, %79
  %82 = lshr i32 %76, 2
  %83 = and i32 %82, 1061109567
  %84 = lshr i32 %78, 2
  %85 = and i32 %84, 1061109567
  %narrow55.i16.i = add nuw nsw i32 %85, %83
  %86 = add nuw i32 %narrow55.i16.i, %.05259.i14.i
  %87 = add nuw nsw i32 %81, %.05358.i15.i
  %88 = lshr i32 %87, 2
  %89 = and i32 %88, 252645135
  %90 = add i32 %86, %89
  store i32 %90, ptr %.161.i12.i, align 4, !tbaa !9
  %91 = getelementptr inbounds i8, ptr %.14962.i11.i, i64 %2
  %92 = getelementptr inbounds i8, ptr %.161.i12.i, i64 %2
  %93 = load i32, ptr %91, align 1, !tbaa !8
  %94 = getelementptr inbounds nuw i8, ptr %91, i64 1
  %95 = load i32, ptr %94, align 1, !tbaa !8
  %96 = and i32 %93, 50529027
  %97 = and i32 %95, 50529027
  %98 = add nuw nsw i32 %96, 33686018
  %99 = add nuw nsw i32 %98, %97
  %100 = lshr i32 %93, 2
  %101 = and i32 %100, 1061109567
  %102 = lshr i32 %95, 2
  %103 = and i32 %102, 1061109567
  %narrow56.i17.i = add nuw nsw i32 %103, %101
  %104 = add nuw i32 %narrow56.i17.i, %narrow55.i16.i
  %105 = add nuw nsw i32 %99, %81
  %106 = lshr i32 %105, 2
  %107 = and i32 %106, 117901063
  %108 = add i32 %104, %107
  store i32 %108, ptr %92, align 4, !tbaa !9
  %109 = getelementptr inbounds i8, ptr %92, i64 %2
  %110 = add nuw nsw i32 %.05160.i13.i, 2
  %.149.i18.i = getelementptr inbounds i8, ptr %91, i64 %2
  %111 = icmp samesign ult i32 %.05160.i13.i, 14
  br i1 %111, label %75, label %112, !llvm.loop !11

112:                                              ; preds = %75
  %113 = getelementptr inbounds i8, ptr %.149.i18.i, i64 %4
  %114 = getelementptr inbounds i8, ptr %109, i64 %6
  br i1 %63, label %62, label %put_pixels16_xy2_8_c.exit, !llvm.loop !13

put_pixels16_xy2_8_c.exit:                        ; preds = %112
  ret void
}